target datalayout = "e-m:e-p270:32:32-p271:32:32-p272:64:64-i64:64-i128:128-f80:128-n8:16:32:64-S128"
target triple = "x86_64-pc-linux-gnu"

%struct.rbimpl_size_mul_overflow_tag = type { i8, i64 }
%struct.Dl_info = type { ptr, ptr, ptr, ptr }

@dln_open.incompatible = internal constant [29 x i8] c"incompatible library version\00", align 16
@.str.3 = private unnamed_addr constant [31 x i8] c"linked to incompatible %s - %s\00", align 1
@.str.4 = private unnamed_addr constant [8 x i8] c"%s - %s\00", align 1
@.str.5 = private unnamed_addr constant [13 x i8] c"ruby_xmalloc\00", align 1

; Function Attrs: alwaysinline nounwind
define internal ptr @memcpy.inline(ptr noalias nonnull %0, ptr noalias nonnull %1, i64 %2) #8 {
  %4 = alloca ptr, align 8
  %5 = alloca ptr, align 8
  %6 = alloca i64, align 8
  store ptr %0, ptr %4, align 8, !tbaa !7
  store ptr %1, ptr %5, align 8, !tbaa !7
  store i64 %2, ptr %6, align 8, !tbaa !15
  %7 = load ptr, ptr %4, align 8, !tbaa !7
  %8 = load ptr, ptr %5, align 8, !tbaa !7
  %9 = load i64, ptr %6, align 8, !tbaa !15
  %10 = load ptr, ptr %4, align 8, !tbaa !7
  %11 = call i64 @llvm.objectsize.i64.p0(ptr %10, i1 false, i1 true, i1 false)
  %12 = call ptr @__memcpy_chk(ptr noundef %7, ptr noundef %8, i64 noundef %9, i64 noundef %11) #14
  ret ptr %12
}

; Function Attrs: inlinehint nounwind sspstrong willreturn memory(none) uwtable
define internal { i8, i64 } @rbimpl_size_mul_overflow(i64 noundef %0, i64 noundef %1) #11 {
  %3 = alloca %struct.rbimpl_size_mul_overflow_tag, align 8
  %4 = alloca i64, align 8
  %5 = alloca i64, align 8
  store i64 %0, ptr %4, align 8, !tbaa !15
  store i64 %1, ptr %5, align 8, !tbaa !15
  call void @llvm.memset.p0.i64(ptr align 8 %3, i8 0, i64 16, i1 false)
  %6 = load i64, ptr %4, align 8, !tbaa !15
  %7 = load i64, ptr %5, align 8, !tbaa !15
  %8 = getelementptr inbounds nuw %struct.rbimpl_size_mul_overflow_tag, ptr %3, i32 0, i32 1
  %9 = call { i64, i1 } @llvm.umul.with.overflow.i64(i64 %6, i64 %7)
  %10 = extractvalue { i64, i1 } %9, 1
  %11 = extractvalue { i64, i1 } %9, 0
  store i64 %11, ptr %8, align 8
  %12 = getelementptr inbounds nuw %struct.rbimpl_size_mul_overflow_tag, ptr %3, i32 0, i32 0
  %13 = zext i1 %10 to i8
  store i8 %13, ptr %12, align 8, !tbaa !23
  %14 = load { i8, i64 }, ptr %3, align 8
  ret { i8, i64 } %14
}

; Function Attrs: nounwind sspstrong uwtable
define internal zeroext i1 @dln_incompatible_func(ptr noundef %0, ptr noundef %1, ptr noundef %2, ptr noundef %3) #0 {
  %5 = alloca i1, align 1
  %6 = alloca ptr, align 8
  %7 = alloca ptr, align 8
  %8 = alloca ptr, align 8
  %9 = alloca ptr, align 8
  %10 = alloca ptr, align 8
  %11 = alloca i32, align 4
  %12 = alloca %struct.Dl_info, align 8
  store ptr %0, ptr %6, align 8, !tbaa !7
  store ptr %1, ptr %7, align 8, !tbaa !11
  store ptr %2, ptr %8, align 8, !tbaa !7
  store ptr %3, ptr %9, align 8, !tbaa !29
  call void @llvm.lifetime.start.p0(i64 8, ptr %10) #14
  %13 = load ptr, ptr %6, align 8, !tbaa !7
  %14 = load ptr, ptr %7, align 8, !tbaa !11
  %15 = call ptr @dlsym(ptr noundef %13, ptr noundef %14) #14
  store ptr %15, ptr %10, align 8, !tbaa !7
  %16 = load ptr, ptr %10, align 8, !tbaa !7
  %17 = icmp ne ptr %16, null
  br i1 %17, label %19, label %18

18:                                               ; preds = %4
  store i1 false, ptr %5, align 1
  store i32 1, ptr %11, align 4
  br label %33

19:                                               ; preds = %4
  %20 = load ptr, ptr %10, align 8, !tbaa !7
  %21 = load ptr, ptr %8, align 8, !tbaa !7
  %22 = icmp eq ptr %20, %21
  br i1 %22, label %23, label %24

23:                                               ; preds = %19
  store i1 false, ptr %5, align 1
  store i32 1, ptr %11, align 4
  br label %33

24:                                               ; preds = %19
  call void @llvm.lifetime.start.p0(i64 32, ptr %12) #14
  %25 = load ptr, ptr %10, align 8, !tbaa !7
  %26 = call i32 @dladdr(ptr noundef %25, ptr noundef %12) #14
  %27 = icmp ne i32 %26, 0
  br i1 %27, label %28, label %32

28:                                               ; preds = %24
  %29 = getelementptr inbounds nuw %struct.Dl_info, ptr %12, i32 0, i32 0
  %30 = load ptr, ptr %29, align 8, !tbaa !31
  %31 = load ptr, ptr %9, align 8, !tbaa !29
  store ptr %30, ptr %31, align 8, !tbaa !11
  br label %32

32:                                               ; preds = %28, %24
  store i1 true, ptr %5, align 1
  store i32 1, ptr %11, align 4
  call void @llvm.lifetime.end.p0(i64 32, ptr %12) #14
  br label %33

33:                                               ; preds = %32, %23, %18
  call void @llvm.lifetime.end.p0(i64 8, ptr %10) #14
  %34 = load i1, ptr %5, align 1
  ret i1 %34
}

; Function Attrs: inlinehint nounwind sspstrong memory(argmem: readwrite, inaccessiblemem: readwrite) uwtable
define internal nonnull ptr @ruby_nonempty_memcpy(ptr noundef nonnull %0, ptr noundef %1, i64 noundef %2) #6 {
  %4 = alloca ptr, align 8
  %5 = alloca ptr, align 8
  %6 = alloca ptr, align 8
  %7 = alloca i64, align 8
  store ptr %0, ptr %5, align 8, !tbaa !7
  store ptr %1, ptr %6, align 8, !tbaa !7
  store i64 %2, ptr %7, align 8, !tbaa !15
  %8 = load i64, ptr %7, align 8, !tbaa !15
  %9 = icmp ne i64 %8, 0
  br i1 %9, label %10, label %15

10:                                               ; preds = %3
  %11 = load ptr, ptr %5, align 8, !tbaa !7
  %12 = load ptr, ptr %6, align 8, !tbaa !7
  %13 = load i64, ptr %7, align 8, !tbaa !15
  %14 = call ptr @memcpy.inline(ptr noundef %11, ptr noundef %12, i64 noundef %13) #14
  store ptr %14, ptr %4, align 8
  br label %17

15:                                               ; preds = %3
  %16 = load ptr, ptr %5, align 8, !tbaa !7
  store ptr %16, ptr %4, align 8
  br label %17

17:                                               ; preds = %15, %10
  %18 = load ptr, ptr %4, align 8
  ret ptr %18
}

; Function Attrs: inlinehint nounwind sspstrong uwtable
define internal i64 @rbimpl_size_mul_or_raise(i64 noundef %0, i64 noundef %1) #4 {
  %3 = alloca i64, align 8
  %4 = alloca i64, align 8
  %5 = alloca %struct.rbimpl_size_mul_overflow_tag, align 8
  store i64 %0, ptr %3, align 8, !tbaa !15
  store i64 %1, ptr %4, align 8, !tbaa !15
  call void @llvm.lifetime.start.p0(i64 16, ptr %5) #14
  %6 = load i64, ptr %3, align 8, !tbaa !15
  %7 = load i64, ptr %4, align 8, !tbaa !15
  %8 = call { i8, i64 } @rbimpl_size_mul_overflow(i64 noundef %6, i64 noundef %7) #19
  %9 = getelementptr inbounds nuw { i8, i64 }, ptr %5, i32 0, i32 0
  %10 = extractvalue { i8, i64 } %8, 0
  store i8 %10, ptr %9, align 8
  %11 = getelementptr inbounds nuw { i8, i64 }, ptr %5, i32 0, i32 1
  %12 = extractvalue { i8, i64 } %8, 1
  store i64 %12, ptr %11, align 8
  %13 = getelementptr inbounds nuw %struct.rbimpl_size_mul_overflow_tag, ptr %5, i32 0, i32 0
  %14 = load i8, ptr %13, align 8, !tbaa !23, !range !26, !noundef !27
  %15 = trunc i8 %14 to i1
  %16 = xor i1 %15, true
  %17 = xor i1 %16, true
  %18 = xor i1 %17, true
  %19 = zext i1 %18 to i32
  %20 = sext i32 %19 to i64
  %21 = call i64 @llvm.expect.i64(i64 %20, i64 1)
  %22 = icmp ne i64 %21, 0
  br i1 %22, label %23, label %26

23:                                               ; preds = %2
  %24 = getelementptr inbounds nuw %struct.rbimpl_size_mul_overflow_tag, ptr %5, i32 0, i32 1
  %25 = load i64, ptr %24, align 8, !tbaa !28
  call void @llvm.lifetime.end.p0(i64 16, ptr %5) #14
  ret i64 %25

26:                                               ; preds = %2
  %27 = load i64, ptr %3, align 8, !tbaa !15
  %28 = load i64, ptr %4, align 8, !tbaa !15
  call void @ruby_malloc_size_overflow(i64 noundef %27, i64 noundef %28) #15
  unreachable
}

; Function Attrs: nounwind sspstrong uwtable
define internal zeroext i1 @dln_incompatible_library_p(ptr noundef %0, ptr noundef %1) #0 {
  %3 = alloca i1, align 1
  %4 = alloca ptr, align 8
  %5 = alloca ptr, align 8
  store ptr %0, ptr %4, align 8, !tbaa !7
  store ptr %1, ptr %5, align 8, !tbaa !29
  %6 = load ptr, ptr %4, align 8, !tbaa !7
  %7 = load ptr, ptr %5, align 8, !tbaa !29
  %8 = call zeroext i1 @dln_incompatible_func(ptr noundef %6, ptr noundef @.str.5, ptr noundef @ruby_xmalloc, ptr noundef %7)
  br i1 %8, label %9, label %10

9:                                                ; preds = %2
  store i1 true, ptr %3, align 1
  br label %11

10:                                               ; preds = %2
  store i1 false, ptr %3, align 1
  br label %11

11:                                               ; preds = %10, %9
  %12 = load i1, ptr %3, align 1
  ret i1 %12
}

; Function Attrs: nounwind sspstrong uwtable
define internal ptr @dln_strerror() #0 {
  %1 = call ptr @dlerror() #14
  ret ptr %1
}

; Function Attrs: nounwind sspstrong uwtable
define internal ptr @dln_open(ptr noundef %0) #0 {
  %2 = alloca ptr, align 8
  %3 = alloca ptr, align 8
  %4 = alloca ptr, align 8
  %5 = alloca ptr, align 8
  %6 = alloca ptr, align 8
  %7 = alloca i64, align 8
  %8 = alloca ptr, align 8
  %9 = alloca i32, align 4
  store ptr %0, ptr %3, align 8, !tbaa !11
  call void @llvm.lifetime.start.p0(i64 8, ptr %4) #14
  store ptr null, ptr %4, align 8, !tbaa !11
  call void @llvm.lifetime.start.p0(i64 8, ptr %5) #14
  %10 = load ptr, ptr %3, align 8, !tbaa !11
  %11 = call ptr @dlopen(ptr noundef %10, i32 noundef 257) #14
  store ptr %11, ptr %5, align 8, !tbaa !7
  %12 = load ptr, ptr %5, align 8, !tbaa !7
  %13 = icmp eq ptr %12, null
  br i1 %13, label %14, label %16

14:                                               ; preds = %1
  %15 = call ptr @dln_strerror()
  store ptr %15, ptr %4, align 8, !tbaa !11
  br label %53

16:                                               ; preds = %1
  call void @llvm.lifetime.start.p0(i64 8, ptr %6) #14
  store ptr null, ptr %6, align 8, !tbaa !11
  %17 = load ptr, ptr %5, align 8, !tbaa !7
  %18 = call zeroext i1 @dln_incompatible_library_p(ptr noundef %17, ptr noundef %6)
  br i1 %18, label %19, label %48

19:                                               ; preds = %16
  %20 = load ptr, ptr %6, align 8, !tbaa !11
  %21 = icmp ne ptr %20, null
  br i1 %21, label %22, label %39

22:                                               ; preds = %19
  call void @llvm.lifetime.start.p0(i64 8, ptr %7) #14
  %23 = load ptr, ptr %6, align 8, !tbaa !11
  %24 = call i64 @strlen(ptr noundef %23) #16
  store i64 %24, ptr %7, align 8, !tbaa !15
  call void @llvm.lifetime.start.p0(i64 8, ptr %8) #14
  %25 = load i64, ptr %7, align 8, !tbaa !15
  %26 = add i64 %25, 1
  %27 = call i64 @rbimpl_size_mul_or_raise(i64 noundef 1, i64 noundef %26)
  %28 = alloca i8, i64 %27, align 16
  store ptr %28, ptr %8, align 8, !tbaa !11
  %29 = load ptr, ptr %8, align 8, !tbaa !11
  %30 = icmp ne ptr %29, null
  br i1 %30, label %31, label %37

31:                                               ; preds = %22
  %32 = load ptr, ptr %8, align 8, !tbaa !11
  %33 = load ptr, ptr %6, align 8, !tbaa !11
  %34 = load i64, ptr %7, align 8, !tbaa !15
  %35 = add i64 %34, 1
  %36 = call nonnull ptr @ruby_nonempty_memcpy(ptr noundef %32, ptr noundef %33, i64 noundef %35) #17
  br label %37

37:                                               ; preds = %31, %22
  %38 = load ptr, ptr %8, align 8, !tbaa !11
  store ptr %38, ptr %6, align 8, !tbaa !11
  call void @llvm.lifetime.end.p0(i64 8, ptr %8) #14
  call void @llvm.lifetime.end.p0(i64 8, ptr %7) #14
  br label %39

39:                                               ; preds = %37, %19
  %40 = load ptr, ptr %5, align 8, !tbaa !7
  %41 = call i32 @dlclose(ptr noundef %40) #14
  %42 = load ptr, ptr %6, align 8, !tbaa !11
  %43 = icmp ne ptr %42, null
  br i1 %43, label %44, label %47

44:                                               ; preds = %39
  %45 = load ptr, ptr %6, align 8, !tbaa !11
  %46 = load ptr, ptr %3, align 8, !tbaa !11
  call void (ptr, ...) @rb_loaderror(ptr noundef @.str.3, ptr noundef %45, ptr noundef %46) #15
  unreachable

47:                                               ; preds = %39
  store ptr @dln_open.incompatible, ptr %4, align 8, !tbaa !11
  store i32 2, ptr %9, align 4
  br label %49

48:                                               ; preds = %16
  store i32 0, ptr %9, align 4
  br label %49

49:                                               ; preds = %47, %48
  call void @llvm.lifetime.end.p0(i64 8, ptr %6) #14
  %50 = load i32, ptr %9, align 4
  switch i32 %50, label %56 [
    i32 0, label %51
    i32 2, label %53
  ]

51:                                               ; preds = %49
  %52 = load ptr, ptr %5, align 8, !tbaa !7
  store ptr %52, ptr %2, align 8
  store i32 1, ptr %9, align 4
  br label %56

53:                                               ; preds = %49, %14
  %54 = load ptr, ptr %4, align 8, !tbaa !11
  %55 = load ptr, ptr %3, align 8, !tbaa !11
  call void (ptr, ...) @rb_loaderror(ptr noundef @.str.4, ptr noundef %54, ptr noundef %55) #15
  unreachable

56:                                               ; preds = %51, %49
  call void @llvm.lifetime.end.p0(i64 8, ptr %5) #14
  call void @llvm.lifetime.end.p0(i64 8, ptr %4) #14
  %57 = load ptr, ptr %2, align 8
  ret ptr %57
}