; Function Attrs: nounwind sspstrong uwtable
define internal fastcc nonnull ptr @dln_open(ptr noundef %0) unnamed_addr #0 {
  %2 = alloca %struct.Dl_info, align 8
  %3 = tail call ptr @dlopen(ptr noundef %0, i32 noundef 257) #9
  %4 = icmp eq ptr %3, null
  br i1 %4, label %5, label %7

5:                                                ; preds = %1
  %6 = tail call ptr @dlerror() #9
  br label %22

7:                                                ; preds = %1
  %8 = tail call ptr @dlsym(ptr noundef nonnull %3, ptr noundef nonnull @.str.5) #9
  %.not.i.i = icmp ne ptr %8, null
  %9 = icmp ne ptr %8, @ruby_xmalloc
  %or.cond.not.i.i = and i1 %.not.i.i, %9
  br i1 %or.cond.not.i.i, label %10, label %23

10:                                               ; preds = %7
  call void @llvm.lifetime.start.p0(i64 32, ptr nonnull %2) #9
  %11 = call i32 @dladdr(ptr noundef nonnull %8, ptr noundef nonnull %2) #9
  %.not9.i.i = icmp eq i32 %11, 0
  br i1 %.not9.i.i, label %.thread, label %12

.thread:                                          ; preds = %10
  call void @llvm.lifetime.end.p0(i64 32, ptr nonnull %2) #9
  br label %dln_incompatible_library_p.exit

12:                                               ; preds = %10
  %13 = load ptr, ptr %2, align 8, !tbaa !12
  call void @llvm.lifetime.end.p0(i64 32, ptr nonnull %2) #9
  %.not = icmp eq ptr %13, null
  br i1 %.not, label %dln_incompatible_library_p.exit, label %14

14:                                               ; preds = %12
  %15 = call i64 @strlen(ptr noundef nonnull dereferenceable(1) %13) #11
  %16 = add i64 %15, 1
  %17 = alloca i8, i64 %16, align 16
  %.not.i = icmp eq i64 %16, 0
  br i1 %.not.i, label %19, label %18

18:                                               ; preds = %14
  call void @llvm.memcpy.p0.p0.i64(ptr noundef nonnull align 16 %17, ptr noundef nonnull readonly align 1 %13, i64 noundef range(i64 1, 0) %16, i1 noundef false) #9
  br label %19

19:                                               ; preds = %14, %18
  %20 = call i32 @dlclose(ptr noundef nonnull %3) #9
  call void (ptr, ...) @rb_loaderror(ptr noundef nonnull @.str.3, ptr noundef nonnull %17, ptr noundef %0) #10
  unreachable

dln_incompatible_library_p.exit:                  ; preds = %12, %.thread
  %21 = call i32 @dlclose(ptr noundef nonnull %3) #9
  br label %22

22:                                               ; preds = %dln_incompatible_library_p.exit, %5
  %.015 = phi ptr [ %6, %5 ], [ @dln_open.incompatible, %dln_incompatible_library_p.exit ]
  call void (ptr, ...) @rb_loaderror(ptr noundef nonnull @.str.4, ptr noundef %.015, ptr noundef %0) #10
  unreachable

23:                                               ; preds = %7
  ret ptr %3
}